target datalayout = "e-m:e-p270:32:32-p271:32:32-p272:64:64-i64:64-i128:128-f80:128-n8:16:32:64-S128"
target triple = "x86_64-unknown-linux-gnu"

%"class.icu_75::UnicodeSet" = type <{ %"class.icu_75::UnicodeFilter", ptr, i32, i32, i8, [7 x i8], ptr, ptr, i32, [4 x i8], ptr, i32, [4 x i8], ptr, ptr, [25 x i32], [4 x i8] }>
%"class.icu_75::UnicodeFilter" = type { %"class.icu_75::UnicodeFunctor", %"class.icu_75::UnicodeMatcher" }
%"class.icu_75::UnicodeFunctor" = type { %"class.icu_75::UObject" }
%"class.icu_75::UObject" = type { ptr }
%"class.icu_75::UnicodeMatcher" = type { ptr }
%"class.icu_75::UVector" = type { %"class.icu_75::UObject", i32, i32, ptr, ptr, ptr }

; Function Attrs: mustprogress nounwind uwtable
define linkonce_odr noundef signext i8 @_ZNK6icu_757UVector7isEmptyEv(ptr noundef nonnull align 8 dereferenceable(40) %this) #0 comdat align 2 {
entry:
  %this.addr = alloca ptr, align 8
  store ptr %this, ptr %this.addr, align 8
  %this1 = load ptr, ptr %this.addr, align 8
  %count = getelementptr inbounds %"class.icu_75::UVector", ptr %this1, i32 0, i32 1
  %0 = load i32, ptr %count, align 8
  %cmp = icmp eq i32 %0, 0
  %conv = zext i1 %cmp to i8
  ret i8 %conv
}

; Function Attrs: mustprogress nounwind uwtable
define noundef i32 @_ZNK6icu_7510UnicodeSet13findCodePointEi(ptr noundef nonnull align 8 dereferenceable(200) %this, i32 noundef %c) #0 align 2 {
entry:
  %retval = alloca i32, align 4
  %this.addr = alloca ptr, align 8
  %c.addr = alloca i32, align 4
  %lo = alloca i32, align 4
  %hi = alloca i32, align 4
  %i = alloca i32, align 4
  store ptr %this, ptr %this.addr, align 8
  store i32 %c, ptr %c.addr, align 4
  %this1 = load ptr, ptr %this.addr, align 8
  %0 = load i32, ptr %c.addr, align 4
  %list = getelementptr inbounds %"class.icu_75::UnicodeSet", ptr %this1, i32 0, i32 1
  %1 = load ptr, ptr %list, align 8
  %arrayidx = getelementptr inbounds i32, ptr %1, i64 0
  %2 = load i32, ptr %arrayidx, align 4
  %cmp = icmp slt i32 %0, %2
  br i1 %cmp, label %if.then, label %if.end

if.then:                                          ; preds = %entry
  store i32 0, ptr %retval, align 4
  br label %return

if.end:                                           ; preds = %entry
  store i32 0, ptr %lo, align 4
  %len = getelementptr inbounds %"class.icu_75::UnicodeSet", ptr %this1, i32 0, i32 3
  %3 = load i32, ptr %len, align 4
  %sub = sub nsw i32 %3, 1
  store i32 %sub, ptr %hi, align 4
  %4 = load i32, ptr %lo, align 4
  %5 = load i32, ptr %hi, align 4
  %cmp2 = icmp sge i32 %4, %5
  br i1 %cmp2, label %if.then7, label %lor.lhs.false

lor.lhs.false:                                    ; preds = %if.end
  %6 = load i32, ptr %c.addr, align 4
  %list3 = getelementptr inbounds %"class.icu_75::UnicodeSet", ptr %this1, i32 0, i32 1
  %7 = load ptr, ptr %list3, align 8
  %8 = load i32, ptr %hi, align 4
  %sub4 = sub nsw i32 %8, 1
  %idxprom = sext i32 %sub4 to i64
  %arrayidx5 = getelementptr inbounds i32, ptr %7, i64 %idxprom
  %9 = load i32, ptr %arrayidx5, align 4
  %cmp6 = icmp sge i32 %6, %9
  br i1 %cmp6, label %if.then7, label %if.end8

if.then7:                                         ; preds = %lor.lhs.false, %if.end
  %10 = load i32, ptr %hi, align 4
  store i32 %10, ptr %retval, align 4
  br label %return

if.end8:                                          ; preds = %lor.lhs.false
  br label %for.cond

for.cond:                                         ; preds = %if.end18, %if.end8
  %11 = load i32, ptr %lo, align 4
  %12 = load i32, ptr %hi, align 4
  %add = add nsw i32 %11, %12
  %shr = ashr i32 %add, 1
  store i32 %shr, ptr %i, align 4
  %13 = load i32, ptr %i, align 4
  %14 = load i32, ptr %lo, align 4
  %cmp9 = icmp eq i32 %13, %14
  br i1 %cmp9, label %if.then10, label %if.else

if.then10:                                        ; preds = %for.cond
  br label %for.end

if.else:                                          ; preds = %for.cond
  %15 = load i32, ptr %c.addr, align 4
  %list11 = getelementptr inbounds %"class.icu_75::UnicodeSet", ptr %this1, i32 0, i32 1
  %16 = load ptr, ptr %list11, align 8
  %17 = load i32, ptr %i, align 4
  %idxprom12 = sext i32 %17 to i64
  %arrayidx13 = getelementptr inbounds i32, ptr %16, i64 %idxprom12
  %18 = load i32, ptr %arrayidx13, align 4
  %cmp14 = icmp slt i32 %15, %18
  br i1 %cmp14, label %if.then15, label %if.else16

if.then15:                                        ; preds = %if.else
  %19 = load i32, ptr %i, align 4
  store i32 %19, ptr %hi, align 4
  br label %if.end17

if.else16:                                        ; preds = %if.else
  %20 = load i32, ptr %i, align 4
  store i32 %20, ptr %lo, align 4
  br label %if.end17

if.end17:                                         ; preds = %if.else16, %if.then15
  br label %if.end18

if.end18:                                         ; preds = %if.end17
  br label %for.cond, !llvm.loop !8

for.end:                                          ; preds = %if.then10
  %21 = load i32, ptr %hi, align 4
  store i32 %21, ptr %retval, align 4
  br label %return

return:                                           ; preds = %for.end, %if.then7, %if.then
  %22 = load i32, ptr %retval, align 4
  ret i32 %22
}

; Function Attrs: mustprogress uwtable
define noundef signext i8 @_ZNK6icu_7510UnicodeSet10hasStringsEv(ptr noundef nonnull align 8 dereferenceable(200) %this) #1 align 2 {
entry:
  %this.addr = alloca ptr, align 8
  store ptr %this, ptr %this.addr, align 8
  %this1 = load ptr, ptr %this.addr, align 8
  %strings = getelementptr inbounds %"class.icu_75::UnicodeSet", ptr %this1, i32 0, i32 13
  %0 = load ptr, ptr %strings, align 8
  %cmp = icmp ne ptr %0, null
  br i1 %cmp, label %land.rhs, label %land.end

land.rhs:                                         ; preds = %entry
  %strings2 = getelementptr inbounds %"class.icu_75::UnicodeSet", ptr %this1, i32 0, i32 13
  %1 = load ptr, ptr %strings2, align 8
  %call = call noundef signext i8 @_ZNK6icu_757UVector7isEmptyEv(ptr noundef nonnull align 8 dereferenceable(40) %1)
  %tobool = icmp ne i8 %call, 0
  %lnot = xor i1 %tobool, true
  br label %land.end

land.end:                                         ; preds = %land.rhs, %entry
  %2 = phi i1 [ false, %entry ], [ %lnot, %land.rhs ]
  %conv = zext i1 %2 to i8
  ret i8 %conv
}

; Function Attrs: mustprogress nounwind uwtable
define noundef signext i8 @_ZNK6icu_7510UnicodeSet12containsNoneEii(ptr noundef nonnull align 8 dereferenceable(200) %this, i32 noundef %start, i32 noundef %end) #0 align 2 {
entry:
  %this.addr = alloca ptr, align 8
  %start.addr = alloca i32, align 4
  %end.addr = alloca i32, align 4
  %i = alloca i32, align 4
  store ptr %this, ptr %this.addr, align 8
  store i32 %start, ptr %start.addr, align 4
  store i32 %end, ptr %end.addr, align 4
  %this1 = load ptr, ptr %this.addr, align 8
  %0 = load i32, ptr %start.addr, align 4
  %call = call noundef i32 @_ZNK6icu_7510UnicodeSet13findCodePointEi(ptr noundef nonnull align 8 dereferenceable(200) %this1, i32 noundef %0)
  store i32 %call, ptr %i, align 4
  %1 = load i32, ptr %i, align 4
  %and = and i32 %1, 1
  %cmp = icmp eq i32 %and, 0
  br i1 %cmp, label %land.rhs, label %land.end

land.rhs:                                         ; preds = %entry
  %2 = load i32, ptr %end.addr, align 4
  %list = getelementptr inbounds %"class.icu_75::UnicodeSet", ptr %this1, i32 0, i32 1
  %3 = load ptr, ptr %list, align 8
  %4 = load i32, ptr %i, align 4
  %idxprom = sext i32 %4 to i64
  %arrayidx = getelementptr inbounds i32, ptr %3, i64 %idxprom
  %5 = load i32, ptr %arrayidx, align 4
  %cmp2 = icmp slt i32 %2, %5
  br label %land.end

land.end:                                         ; preds = %land.rhs, %entry
  %6 = phi i1 [ false, %entry ], [ %cmp2, %land.rhs ]
  %conv = zext i1 %6 to i8
  ret i8 %conv
}

; Function Attrs: mustprogress nounwind uwtable
define noundef i32 @_ZNK6icu_7510UnicodeSet11getRangeEndEi(ptr noundef nonnull align 8 dereferenceable(200) %this, i32 noundef %index) unnamed_addr #0 align 2 {
entry:
  %this.addr = alloca ptr, align 8
  %index.addr = alloca i32, align 4
  store ptr %this, ptr %this.addr, align 8
  store i32 %index, ptr %index.addr, align 4
  %this1 = load ptr, ptr %this.addr, align 8
  %list = getelementptr inbounds %"class.icu_75::UnicodeSet", ptr %this1, i32 0, i32 1
  %0 = load ptr, ptr %list, align 8
  %1 = load i32, ptr %index.addr, align 4
  %mul = mul nsw i32 %1, 2
  %add = add nsw i32 %mul, 1
  %idxprom = sext i32 %add to i64
  %arrayidx = getelementptr inbounds i32, ptr %0, i64 %idxprom
  %2 = load i32, ptr %arrayidx, align 4
  %sub = sub nsw i32 %2, 1
  ret i32 %sub
}

; Function Attrs: mustprogress nounwind uwtable
define noundef i32 @_ZNK6icu_7510UnicodeSet13getRangeStartEi(ptr noundef nonnull align 8 dereferenceable(200) %this, i32 noundef %index) unnamed_addr #0 align 2 {
entry:
  %this.addr = alloca ptr, align 8
  %index.addr = alloca i32, align 4
  store ptr %this, ptr %this.addr, align 8
  store i32 %index, ptr %index.addr, align 4
  %this1 = load ptr, ptr %this.addr, align 8
  %list = getelementptr inbounds %"class.icu_75::UnicodeSet", ptr %this1, i32 0, i32 1
  %0 = load ptr, ptr %list, align 8
  %1 = load i32, ptr %index.addr, align 4
  %mul = mul nsw i32 %1, 2
  %idxprom = sext i32 %mul to i64
  %arrayidx = getelementptr inbounds i32, ptr %0, i64 %idxprom
  %2 = load i32, ptr %arrayidx, align 4
  ret i32 %2
}

; Function Attrs: mustprogress nounwind uwtable
define noundef i32 @_ZNK6icu_7510UnicodeSet13getRangeCountEv(ptr noundef nonnull align 8 dereferenceable(200) %this) unnamed_addr #0 align 2 {
entry:
  %this.addr = alloca ptr, align 8
  store ptr %this, ptr %this.addr, align 8
  %this1 = load ptr, ptr %this.addr, align 8
  %len = getelementptr inbounds %"class.icu_75::UnicodeSet", ptr %this1, i32 0, i32 3
  %0 = load i32, ptr %len, align 4
  %div = sdiv i32 %0, 2
  ret i32 %div
}

; Function Attrs: mustprogress uwtable
define noundef signext i8 @_ZNK6icu_7510UnicodeSet12containsNoneERKS0_(ptr noundef nonnull align 8 dereferenceable(200) %this, ptr noundef nonnull align 8 dereferenceable(200) %c) #1 align 2 {
entry:
  %retval = alloca i8, align 1
  %this.addr = alloca ptr, align 8
  %c.addr = alloca ptr, align 8
  %n = alloca i32, align 4
  %i = alloca i32, align 4
  store ptr %this, ptr %this.addr, align 8
  store ptr %c, ptr %c.addr, align 8
  %this1 = load ptr, ptr %this.addr, align 8
  %0 = load ptr, ptr %c.addr, align 8
  %call = call noundef i32 @_ZNK6icu_7510UnicodeSet13getRangeCountEv(ptr noundef nonnull align 8 dereferenceable(200) %0)
  store i32 %call, ptr %n, align 4
  store i32 0, ptr %i, align 4
  br label %for.cond

for.cond:                                         ; preds = %for.inc, %entry
  %1 = load i32, ptr %i, align 4
  %2 = load i32, ptr %n, align 4
  %cmp = icmp slt i32 %1, %2
  br i1 %cmp, label %for.body, label %for.end

for.body:                                         ; preds = %for.cond
  %3 = load ptr, ptr %c.addr, align 8
  %4 = load i32, ptr %i, align 4
  %call2 = call noundef i32 @_ZNK6icu_7510UnicodeSet13getRangeStartEi(ptr noundef nonnull align 8 dereferenceable(200) %3, i32 noundef %4)
  %5 = load ptr, ptr %c.addr, align 8
  %6 = load i32, ptr %i, align 4
  %call3 = call noundef i32 @_ZNK6icu_7510UnicodeSet11getRangeEndEi(ptr noundef nonnull align 8 dereferenceable(200) %5, i32 noundef %6)
  %call4 = call noundef signext i8 @_ZNK6icu_7510UnicodeSet12containsNoneEii(ptr noundef nonnull align 8 dereferenceable(200) %this1, i32 noundef %call2, i32 noundef %call3)
  %tobool = icmp ne i8 %call4, 0
  br i1 %tobool, label %if.end, label %if.then

if.then:                                          ; preds = %for.body
  store i8 0, ptr %retval, align 1
  br label %return

if.end:                                           ; preds = %for.body
  br label %for.inc

for.inc:                                          ; preds = %if.end
  %7 = load i32, ptr %i, align 4
  %inc = add nsw i32 %7, 1
  store i32 %inc, ptr %i, align 4
  br label %for.cond, !llvm.loop !11

for.end:                                          ; preds = %for.cond
  %strings = getelementptr inbounds %"class.icu_75::UnicodeSet", ptr %this1, i32 0, i32 13
  %8 = load ptr, ptr %strings, align 8
  %cmp5 = icmp eq ptr %8, null
  br i1 %cmp5, label %lor.end, label %lor.lhs.false

lor.lhs.false:                                    ; preds = %for.end
  %9 = load ptr, ptr %c.addr, align 8
  %call6 = call noundef signext i8 @_ZNK6icu_7510UnicodeSet10hasStringsEv(ptr noundef nonnull align 8 dereferenceable(200) %9)
  %tobool7 = icmp ne i8 %call6, 0
  br i1 %tobool7, label %lor.rhs, label %lor.end

lor.rhs:                                          ; preds = %lor.lhs.false
  %strings8 = getelementptr inbounds %"class.icu_75::UnicodeSet", ptr %this1, i32 0, i32 13
  %10 = load ptr, ptr %strings8, align 8
  %11 = load ptr, ptr %c.addr, align 8
  %strings9 = getelementptr inbounds %"class.icu_75::UnicodeSet", ptr %11, i32 0, i32 13
  %12 = load ptr, ptr %strings9, align 8
  %call10 = call noundef signext i8 @_ZNK6icu_757UVector12containsNoneERKS0_(ptr noundef nonnull align 8 dereferenceable(40) %10, ptr noundef nonnull align 8 dereferenceable(40) %12)
  %tobool11 = icmp ne i8 %call10, 0
  br label %lor.end

lor.end:                                          ; preds = %lor.rhs, %lor.lhs.false, %for.end
  %13 = phi i1 [ true, %lor.lhs.false ], [ true, %for.end ], [ %tobool11, %lor.rhs ]
  %conv = zext i1 %13 to i8
  store i8 %conv, ptr %retval, align 1
  br label %return

return:                                           ; preds = %lor.end, %if.then
  %14 = load i8, ptr %retval, align 1
  ret i8 %14
}