; Function Attrs: mustprogress uwtable
define noundef signext i8 @_ZNK6icu_7510UnicodeSet12containsNoneERKS0_(ptr nocapture noundef nonnull readonly align 8 dereferenceable(200) %this, ptr nocapture noundef nonnull readonly align 8 dereferenceable(200) %c) local_unnamed_addr #1 align 2 {
entry:
  %len.i = getelementptr inbounds i8, ptr %c, i64 28
  %0 = load i32, ptr %len.i, align 4
  %div.i = sdiv i32 %0, 2
  %cmp19 = icmp sgt i32 %0, 1
  br i1 %cmp19, label %for.body.lr.ph, label %for.end

for.body.lr.ph:                                   ; preds = %entry
  %list.i = getelementptr inbounds i8, ptr %c, i64 16
  %1 = load ptr, ptr %list.i, align 8
  %list.i.i = getelementptr inbounds i8, ptr %this, i64 16
  %2 = load ptr, ptr %list.i.i, align 8
  %3 = load i32, ptr %2, align 4
  %len.i.i = getelementptr inbounds i8, ptr %this, i64 28
  %4 = load i32, ptr %len.i.i, align 4
  %.fr = freeze i32 %4
  %sub.i.i = add i32 %.fr, -1
  %cmp2.i.i = icmp slt i32 %.fr, 2
  %5 = zext nneg i32 %.fr to i64
  %6 = getelementptr i32, ptr %2, i64 %5
  %arrayidx5.i.i = getelementptr i8, ptr %6, i64 -8
  %shr12.i.i = lshr i32 %sub.i.i, 1
  br i1 %cmp2.i.i, label %for.body.lr.ph.split.us, label %for.body.lr.ph.split

for.body.lr.ph.split.us:                          ; preds = %for.body.lr.ph
  %and.i.us = and i32 %sub.i.i, 1
  %cmp.i.us = icmp eq i32 %and.i.us, 0
  %idxprom.phi.trans.insert.i.us = sext i32 %sub.i.i to i64
  %arrayidx.phi.trans.insert.i.us = getelementptr inbounds i32, ptr %2, i64 %idxprom.phi.trans.insert.i.us
  %wide.trip.count74 = zext nneg i32 %div.i to i64
  br i1 %cmp.i.us, label %for.body.us.us, label %for.body.us

for.body.us.us:                                   ; preds = %for.body.lr.ph.split.us, %for.cond.us.us
  %indvars.iv69 = phi i64 [ %indvars.iv.next70, %for.cond.us.us ], [ 0, %for.body.lr.ph.split.us ]
  %7 = shl nuw nsw i64 %indvars.iv69, 1
  %arrayidx.i.us.us = getelementptr inbounds i32, ptr %1, i64 %7
  %8 = load i32, ptr %arrayidx.i.us.us, align 4
  %9 = or disjoint i64 %7, 1
  %arrayidx.i11.us.us = getelementptr inbounds i32, ptr %1, i64 %9
  %10 = load i32, ptr %arrayidx.i11.us.us, align 4
  %cmp.i.i.us.us = icmp sgt i32 %3, %8
  br i1 %cmp.i.i.us.us, label %_ZNK6icu_7510UnicodeSet12containsNoneEii.exit.us.us, label %if.end.i.i.us.us

for.cond.us.us:                                   ; preds = %_ZNK6icu_7510UnicodeSet12containsNoneEii.exit.us.us
  %indvars.iv.next70 = add nuw nsw i64 %indvars.iv69, 1
  %exitcond75.not = icmp eq i64 %indvars.iv.next70, %wide.trip.count74
  br i1 %exitcond75.not, label %for.end, label %for.body.us.us, !llvm.loop !12

if.end.i.i.us.us:                                 ; preds = %for.body.us.us
  %.pre.i.us.us = load i32, ptr %arrayidx.phi.trans.insert.i.us, align 4
  br label %_ZNK6icu_7510UnicodeSet12containsNoneEii.exit.us.us

_ZNK6icu_7510UnicodeSet12containsNoneEii.exit.us.us: ; preds = %if.end.i.i.us.us, %for.body.us.us
  %11 = phi i32 [ %.pre.i.us.us, %if.end.i.i.us.us ], [ %3, %for.body.us.us ]
  %cmp2.i.not.us.us = icmp slt i32 %11, %10
  br i1 %cmp2.i.not.us.us, label %return, label %for.cond.us.us

for.body.us:                                      ; preds = %for.body.lr.ph.split.us, %for.cond.us
  %indvars.iv62 = phi i64 [ %indvars.iv.next63, %for.cond.us ], [ 0, %for.body.lr.ph.split.us ]
  %12 = shl nuw nsw i64 %indvars.iv62, 1
  %arrayidx.i.us = getelementptr inbounds i32, ptr %1, i64 %12
  %13 = load i32, ptr %arrayidx.i.us, align 4
  %cmp.i.i.us = icmp sgt i32 %3, %13
  br i1 %cmp.i.i.us, label %_ZNK6icu_7510UnicodeSet12containsNoneEii.exit.us, label %return

for.cond.us:                                      ; preds = %_ZNK6icu_7510UnicodeSet12containsNoneEii.exit.us
  %indvars.iv.next63 = add nuw nsw i64 %indvars.iv62, 1
  %exitcond68.not = icmp eq i64 %indvars.iv.next63, %wide.trip.count74
  br i1 %exitcond68.not, label %for.end, label %for.body.us, !llvm.loop !12

_ZNK6icu_7510UnicodeSet12containsNoneEii.exit.us: ; preds = %for.body.us
  %14 = or disjoint i64 %12, 1
  %arrayidx.i11.us = getelementptr inbounds i32, ptr %1, i64 %14
  %15 = load i32, ptr %arrayidx.i11.us, align 4
  %cmp2.i.not.us = icmp slt i32 %3, %15
  br i1 %cmp2.i.not.us, label %return, label %for.cond.us

for.body.lr.ph.split:                             ; preds = %for.body.lr.ph
  %cmp913.i.i = icmp eq i32 %.fr, 2
  %wide.trip.count60 = zext nneg i32 %div.i to i64
  br i1 %cmp913.i.i, label %for.body.us21, label %for.body

for.body.us21:                                    ; preds = %for.body.lr.ph.split, %for.cond.us30
  %indvars.iv55 = phi i64 [ %indvars.iv.next56, %for.cond.us30 ], [ 0, %for.body.lr.ph.split ]
  %16 = shl nuw nsw i64 %indvars.iv55, 1
  %arrayidx.i.us25 = getelementptr inbounds i32, ptr %1, i64 %16
  %17 = load i32, ptr %arrayidx.i.us25, align 4
  %cmp.i.i.us29 = icmp sgt i32 %3, %17
  br i1 %cmp.i.i.us29, label %_ZNK6icu_7510UnicodeSet12containsNoneEii.exit.us41, label %return

for.cond.us30:                                    ; preds = %_ZNK6icu_7510UnicodeSet12containsNoneEii.exit.us41
  %indvars.iv.next56 = add nuw nsw i64 %indvars.iv55, 1
  %exitcond61.not = icmp eq i64 %indvars.iv.next56, %wide.trip.count60
  br i1 %exitcond61.not, label %for.end, label %for.body.us21, !llvm.loop !12

_ZNK6icu_7510UnicodeSet12containsNoneEii.exit.us41: ; preds = %for.body.us21
  %18 = or disjoint i64 %16, 1
  %arrayidx.i11.us28 = getelementptr inbounds i32, ptr %1, i64 %18
  %19 = load i32, ptr %arrayidx.i11.us28, align 4
  %cmp2.i.not.us42 = icmp slt i32 %3, %19
  br i1 %cmp2.i.not.us42, label %return, label %for.cond.us30

for.cond:                                         ; preds = %_ZNK6icu_7510UnicodeSet12containsNoneEii.exit
  %indvars.iv.next = add nuw nsw i64 %indvars.iv, 1
  %exitcond.not = icmp eq i64 %indvars.iv.next, %wide.trip.count60
  br i1 %exitcond.not, label %for.end, label %for.body, !llvm.loop !12

for.body:                                         ; preds = %for.body.lr.ph.split, %for.cond
  %indvars.iv = phi i64 [ %indvars.iv.next, %for.cond ], [ 0, %for.body.lr.ph.split ]
  %20 = shl nuw nsw i64 %indvars.iv, 1
  %arrayidx.i = getelementptr inbounds i32, ptr %1, i64 %20
  %21 = load i32, ptr %arrayidx.i, align 4
  %22 = or disjoint i64 %20, 1
  %arrayidx.i11 = getelementptr inbounds i32, ptr %1, i64 %22
  %23 = load i32, ptr %arrayidx.i11, align 4
  %cmp.i.i = icmp sgt i32 %3, %21
  br i1 %cmp.i.i, label %_ZNK6icu_7510UnicodeSet12containsNoneEii.exit, label %if.end.i.i

if.end.i.i:                                       ; preds = %for.body
  %24 = load i32, ptr %arrayidx5.i.i, align 4
  %cmp6.not.i.i.not = icmp sgt i32 %24, %21
  br i1 %cmp6.not.i.i.not, label %if.else.i.i, label %_ZNK6icu_7510UnicodeSet13findCodePointEi.exit.i

if.else.i.i:                                      ; preds = %if.end.i.i, %if.else.i.i
  %shr16.i.i = phi i32 [ %shr.i.i, %if.else.i.i ], [ %shr12.i.i, %if.end.i.i ]
  %hi.015.i.i = phi i32 [ %shr.hi.0.i.i, %if.else.i.i ], [ %sub.i.i, %if.end.i.i ]
  %lo.014.i.i = phi i32 [ %lo.0.shr.i.i, %if.else.i.i ], [ 0, %if.end.i.i ]
  %idxprom12.i.i = zext nneg i32 %shr16.i.i to i64
  %arrayidx13.i.i = getelementptr inbounds i32, ptr %2, i64 %idxprom12.i.i
  %25 = load i32, ptr %arrayidx13.i.i, align 4
  %cmp14.i.i = icmp sgt i32 %25, %21
  %lo.0.shr.i.i = select i1 %cmp14.i.i, i32 %lo.014.i.i, i32 %shr16.i.i
  %shr.hi.0.i.i = select i1 %cmp14.i.i, i32 %shr16.i.i, i32 %hi.015.i.i
  %add.i.i = add nuw nsw i32 %shr.hi.0.i.i, %lo.0.shr.i.i
  %shr.i.i = lshr i32 %add.i.i, 1
  %cmp9.i.i = icmp eq i32 %shr.i.i, %lo.0.shr.i.i
  br i1 %cmp9.i.i, label %_ZNK6icu_7510UnicodeSet13findCodePointEi.exit.i, label %if.else.i.i, !llvm.loop !9

_ZNK6icu_7510UnicodeSet13findCodePointEi.exit.i:  ; preds = %if.else.i.i, %if.end.i.i
  %retval.0.i.i = phi i32 [ %sub.i.i, %if.end.i.i ], [ %shr.hi.0.i.i, %if.else.i.i ]
  %and.i = and i32 %retval.0.i.i, 1
  %cmp.i = icmp eq i32 %and.i, 0
  br i1 %cmp.i, label %_ZNK6icu_7510UnicodeSet13findCodePointEi.exit.land.rhs_crit_edge.i, label %return

_ZNK6icu_7510UnicodeSet13findCodePointEi.exit.land.rhs_crit_edge.i: ; preds = %_ZNK6icu_7510UnicodeSet13findCodePointEi.exit.i
  %idxprom.phi.trans.insert.i = sext i32 %retval.0.i.i to i64
  %arrayidx.phi.trans.insert.i = getelementptr inbounds i32, ptr %2, i64 %idxprom.phi.trans.insert.i
  %.pre.i = load i32, ptr %arrayidx.phi.trans.insert.i, align 4
  br label %_ZNK6icu_7510UnicodeSet12containsNoneEii.exit

_ZNK6icu_7510UnicodeSet12containsNoneEii.exit:    ; preds = %for.body, %_ZNK6icu_7510UnicodeSet13findCodePointEi.exit.land.rhs_crit_edge.i
  %26 = phi i32 [ %.pre.i, %_ZNK6icu_7510UnicodeSet13findCodePointEi.exit.land.rhs_crit_edge.i ], [ %3, %for.body ]
  %cmp2.i.not = icmp slt i32 %26, %23
  br i1 %cmp2.i.not, label %return, label %for.cond

for.end:                                          ; preds = %for.cond, %for.cond.us30, %for.cond.us, %for.cond.us.us, %entry
  %strings = getelementptr inbounds i8, ptr %this, i64 80
  %27 = load ptr, ptr %strings, align 8
  %cmp5 = icmp eq ptr %27, null
  br i1 %cmp5, label %return, label %lor.lhs.false

lor.lhs.false:                                    ; preds = %for.end
  %strings.i = getelementptr inbounds i8, ptr %c, i64 80
  %28 = load ptr, ptr %strings.i, align 8
  %cmp.not.i = icmp eq ptr %28, null
  br i1 %cmp.not.i, label %return, label %_ZNK6icu_7510UnicodeSet10hasStringsEv.exit

_ZNK6icu_7510UnicodeSet10hasStringsEv.exit:       ; preds = %lor.lhs.false
  %count.i.i = getelementptr inbounds i8, ptr %28, i64 8
  %29 = load i32, ptr %count.i.i, align 8
  %cmp.i.i13.not = icmp eq i32 %29, 0
  br i1 %cmp.i.i13.not, label %return, label %lor.rhs

lor.rhs:                                          ; preds = %_ZNK6icu_7510UnicodeSet10hasStringsEv.exit
  %call10 = tail call noundef signext i8 @_ZNK6icu_757UVector12containsNoneERKS0_(ptr noundef nonnull align 8 dereferenceable(40) %27, ptr noundef nonnull align 8 dereferenceable(40) %28)
  %tobool11 = icmp ne i8 %call10, 0
  %30 = zext i1 %tobool11 to i8
  br label %return

return:                                           ; preds = %_ZNK6icu_7510UnicodeSet13findCodePointEi.exit.i, %_ZNK6icu_7510UnicodeSet12containsNoneEii.exit, %_ZNK6icu_7510UnicodeSet12containsNoneEii.exit.us41, %for.body.us21, %for.body.us, %_ZNK6icu_7510UnicodeSet12containsNoneEii.exit.us, %_ZNK6icu_7510UnicodeSet12containsNoneEii.exit.us.us, %lor.lhs.false, %for.end, %_ZNK6icu_7510UnicodeSet10hasStringsEv.exit, %lor.rhs
  %retval.0 = phi i8 [ 1, %_ZNK6icu_7510UnicodeSet10hasStringsEv.exit ], [ 1, %for.end ], [ %30, %lor.rhs ], [ 1, %lor.lhs.false ], [ 0, %_ZNK6icu_7510UnicodeSet12containsNoneEii.exit.us.us ], [ 0, %_ZNK6icu_7510UnicodeSet12containsNoneEii.exit.us ], [ 0, %for.body.us ], [ 0, %for.body.us21 ], [ 0, %_ZNK6icu_7510UnicodeSet12containsNoneEii.exit.us41 ], [ 0, %_ZNK6icu_7510UnicodeSet12containsNoneEii.exit ], [ 0, %_ZNK6icu_7510UnicodeSet13findCodePointEi.exit.i ]
  ret i8 %retval.0
}